target datalayout = "e-m:e-p270:32:32-p271:32:32-p272:64:64-i64:64-i128:128-f80:128-n8:16:32:64-S128"
target triple = "x86_64-pc-linux-gnu"

%struct.ggml_backend_reg = type { i32, %struct.ggml_backend_reg_i, ptr }
%struct.ggml_backend_reg_i = type { ptr, ptr, ptr, ptr }

; Function Attrs: mustprogress uwtable
define ptr @ggml_backend_reg_get_proc_address(ptr noundef %0, ptr noundef %1) #0 {
  %3 = alloca ptr, align 8
  %4 = alloca ptr, align 8
  %5 = alloca ptr, align 8
  store ptr %0, ptr %4, align 8, !tbaa !115
  store ptr %1, ptr %5, align 8, !tbaa !111
  %6 = load ptr, ptr %4, align 8, !tbaa !115
  %7 = getelementptr inbounds nuw %struct.ggml_backend_reg, ptr %6, i32 0, i32 1
  %8 = getelementptr inbounds nuw %struct.ggml_backend_reg_i, ptr %7, i32 0, i32 3
  %9 = load ptr, ptr %8, align 8, !tbaa !121
  %10 = icmp ne ptr %9, null
  br i1 %10, label %12, label %11

11:                                               ; preds = %2
  store ptr null, ptr %3, align 8
  br label %20

12:                                               ; preds = %2
  %13 = load ptr, ptr %4, align 8, !tbaa !115
  %14 = getelementptr inbounds nuw %struct.ggml_backend_reg, ptr %13, i32 0, i32 1
  %15 = getelementptr inbounds nuw %struct.ggml_backend_reg_i, ptr %14, i32 0, i32 3
  %16 = load ptr, ptr %15, align 8, !tbaa !121
  %17 = load ptr, ptr %4, align 8, !tbaa !115
  %18 = load ptr, ptr %5, align 8, !tbaa !111
  %19 = call noundef ptr %16(ptr noundef %17, ptr noundef %18)
  store ptr %19, ptr %3, align 8
  br label %20

20:                                               ; preds = %12, %11
  %21 = load ptr, ptr %3, align 8
  ret ptr %21
}